
mul.o:     file format pe-i386


Disassembly of section .text:

00000000 <_main>:
   0:	55                   	push   ebp
   1:	89 e5                	mov    ebp,esp
   3:	83 e4 f0             	and    esp,0xfffffff0
   6:	83 ec 20             	sub    esp,0x20
   9:	e8 00 00 00 00       	call   e <_main+0xe>
   e:	c7 04 24 00 00 00 00 	mov    DWORD PTR [esp],0x0
  15:	e8 00 00 00 00       	call   1a <_main+0x1a>
  1a:	8d 44 24 14          	lea    eax,[esp+0x14]
  1e:	89 44 24 08          	mov    DWORD PTR [esp+0x8],eax
  22:	8d 44 24 18          	lea    eax,[esp+0x18]
  26:	89 44 24 04          	mov    DWORD PTR [esp+0x4],eax
  2a:	c7 04 24 13 00 00 00 	mov    DWORD PTR [esp],0x13
  31:	e8 00 00 00 00       	call   36 <_main+0x36>
  36:	8b 44 24 18          	mov    eax,DWORD PTR [esp+0x18]
  3a:	85 c0                	test   eax,eax
  3c:	7e 2d                	jle    6b <_main+0x6b>
  3e:	8b 44 24 14          	mov    eax,DWORD PTR [esp+0x14]
  42:	85 c0                	test   eax,eax
  44:	7e 25                	jle    6b <_main+0x6b>
  46:	8b 54 24 18          	mov    edx,DWORD PTR [esp+0x18]
  4a:	8b 44 24 14          	mov    eax,DWORD PTR [esp+0x14]
  4e:	0f af c2             	imul   eax,edx
  51:	89 44 24 1c          	mov    DWORD PTR [esp+0x1c],eax
  55:	8b 44 24 1c          	mov    eax,DWORD PTR [esp+0x1c]
  59:	89 44 24 04          	mov    DWORD PTR [esp+0x4],eax
  5d:	c7 04 24 19 00 00 00 	mov    DWORD PTR [esp],0x19
  64:	e8 00 00 00 00       	call   69 <_main+0x69>
  69:	eb 0c                	jmp    77 <_main+0x77>
  6b:	c7 04 24 34 00 00 00 	mov    DWORD PTR [esp],0x34
  72:	e8 00 00 00 00       	call   77 <_main+0x77>
  77:	b8 00 00 00 00       	mov    eax,0x0
  7c:	c9                   	leave  
  7d:	c3                   	ret    
  7e:	90                   	nop
  7f:	90                   	nop
